target datalayout = "e-m:e-p270:32:32-p271:32:32-p272:64:64-i64:64-i128:128-f80:128-n8:16:32:64-S128"
target triple = "x86_64-pc-linux-gnu"

; Function Attrs: mustprogress nounwind uwtable
define noundef double @_ZN2cv11RNG_MT19937cvdEv(ptr noundef nonnull align 4 dereferenceable(2500) %0) #4 align 2 {
  %2 = alloca ptr, align 8
  %3 = alloca i32, align 4
  %4 = alloca i32, align 4
  store ptr %0, ptr %2, align 8
  %5 = load ptr, ptr %2, align 8
  %6 = call noundef i32 @_ZN2cv11RNG_MT199374nextEv(ptr noundef nonnull align 4 dereferenceable(2500) %5)
  %7 = lshr i32 %6, 5
  store i32 %7, ptr %3, align 4
  %8 = call noundef i32 @_ZN2cv11RNG_MT199374nextEv(ptr noundef nonnull align 4 dereferenceable(2500) %5)
  %9 = lshr i32 %8, 6
  store i32 %9, ptr %4, align 4
  %10 = load i32, ptr %3, align 4
  %11 = uitofp i32 %10 to double
  %12 = load i32, ptr %4, align 4
  %13 = uitofp i32 %12 to double
  %14 = call double @llvm.fmuladd.f64(double %11, double 0x4190000000000000, double %13)
  %15 = fmul double %14, 0x3CA0000000000000
  ret double %15
}

; Function Attrs: mustprogress nounwind uwtable
define noundef double @_ZN2cv11RNG_MT199377uniformEdd(ptr noundef nonnull align 4 dereferenceable(2500) %0, double noundef %1, double noundef %2) #4 align 2 {
  %4 = alloca ptr, align 8
  %5 = alloca double, align 8
  %6 = alloca double, align 8
  store ptr %0, ptr %4, align 8
  store double %1, ptr %5, align 8
  store double %2, ptr %6, align 8
  %7 = load ptr, ptr %4, align 8
  %8 = call noundef double @_ZN2cv11RNG_MT19937cvdEv(ptr noundef nonnull align 4 dereferenceable(2500) %7)
  %9 = load double, ptr %6, align 8
  %10 = load double, ptr %5, align 8
  %11 = fsub double %9, %10
  %12 = load double, ptr %5, align 8
  %13 = call double @llvm.fmuladd.f64(double %8, double %11, double %12)
  ret double %13
}