; Function Attrs: mustprogress nofree norecurse nosync nounwind memory(argmem: readwrite) uwtable
define noundef double @_ZN2cv11RNG_MT199377uniformEdd(ptr nocapture noundef nonnull align 4 dereferenceable(2500) %0, double noundef %1, double noundef %2) local_unnamed_addr #7 align 2 {
  %4 = tail call noundef i32 @_ZN2cv11RNG_MT199374nextEv(ptr noundef nonnull align 4 dereferenceable(2500) %0)
  %5 = lshr i32 %4, 5
  %6 = tail call noundef i32 @_ZN2cv11RNG_MT199374nextEv(ptr noundef nonnull align 4 dereferenceable(2500) %0)
  %7 = lshr i32 %6, 6
  %8 = uitofp nneg i32 %5 to double
  %9 = uitofp nneg i32 %7 to double
  %10 = tail call double @llvm.fmuladd.f64(double %8, double 0x4190000000000000, double %9)
  %11 = fmul double %10, 0x3CA0000000000000
  %12 = fsub double %2, %1
  %13 = tail call double @llvm.fmuladd.f64(double %11, double %12, double %1)
  ret double %13
}